target datalayout = "e-m:e-p270:32:32-p271:32:32-p272:64:64-i64:64-i128:128-f80:128-n8:16:32:64-S128"
target triple = "x86_64-pc-linux-gnu"

@stderr = external global ptr, align 8
@__const._ZL12tick_spacingiPffcS_S_.major_fact = private unnamed_addr constant [4 x float] [float 5.000000e+00, float 4.000000e+00, float 2.000000e+00, float 1.000000e+00], align 16
@__const._ZL12tick_spacingiPffcS_S_.minor_fact = private unnamed_addr constant [4 x float] [float 5.000000e+00, float 4.000000e+00, float 4.000000e+00, float 5.000000e+00], align 16
@.str.182 = private unnamed_addr constant [51 x i8] c"Auto tick spacing failed for %c-axis, guessing %g\0A\00", align 1
@.str.183 = private unnamed_addr constant [51 x i8] c"Auto tick spacing for %c-axis: major %g, minor %g\0A\00", align 1

; Function Attrs: mustprogress nounwind uwtable
define linkonce_odr noundef float @_ZSt3powff(float noundef %0, float noundef %1) #3 comdat {
  %3 = alloca float, align 4
  %4 = alloca float, align 4
  store float %0, ptr %3, align 4
  store float %1, ptr %4, align 4
  %5 = load float, ptr %3, align 4
  %6 = load float, ptr %4, align 4
  %7 = call float @powf(float noundef %5, float noundef %6) #13
  ret float %7
}

; Function Attrs: mustprogress nounwind uwtable
define linkonce_odr noundef float @_Zli5_reale(x86_fp80 noundef %0) #3 comdat {
  %2 = alloca x86_fp80, align 16
  store x86_fp80 %0, ptr %2, align 16
  %3 = load x86_fp80, ptr %2, align 16
  %4 = fptrunc x86_fp80 %3 to float
  ret float %4
}

; Function Attrs: mustprogress nounwind uwtable
define linkonce_odr noundef float @_ZSt3logf(float noundef %0) #3 comdat {
  %2 = alloca float, align 4
  store float %0, ptr %2, align 4
  %3 = load float, ptr %2, align 4
  %4 = call float @logf(float noundef %3) #13
  ret float %4
}

; Function Attrs: mustprogress nounwind uwtable
define linkonce_odr noundef nonnull align 4 dereferenceable(4) ptr @_ZSt3maxIfERKT_S2_S2_(ptr noundef nonnull align 4 dereferenceable(4) %0, ptr noundef nonnull align 4 dereferenceable(4) %1) #3 comdat {
  %3 = alloca ptr, align 8
  %4 = alloca ptr, align 8
  %5 = alloca ptr, align 8
  store ptr %0, ptr %4, align 8
  store ptr %1, ptr %5, align 8
  %6 = load ptr, ptr %4, align 8
  %7 = load float, ptr %6, align 4
  %8 = load ptr, ptr %5, align 8
  %9 = load float, ptr %8, align 4
  %10 = fcmp olt float %7, %9
  br i1 %10, label %11, label %13

11:                                               ; preds = %2
  %12 = load ptr, ptr %5, align 8
  store ptr %12, ptr %3, align 8
  br label %15

13:                                               ; preds = %2
  %14 = load ptr, ptr %4, align 8
  store ptr %14, ptr %3, align 8
  br label %15

15:                                               ; preds = %13, %11
  %16 = load ptr, ptr %3, align 8
  ret ptr %16
}

; Function Attrs: mustprogress nounwind uwtable
define linkonce_odr noundef nonnull align 4 dereferenceable(4) ptr @_ZSt3minIiERKT_S2_S2_(ptr noundef nonnull align 4 dereferenceable(4) %0, ptr noundef nonnull align 4 dereferenceable(4) %1) #3 comdat {
  %3 = alloca ptr, align 8
  %4 = alloca ptr, align 8
  %5 = alloca ptr, align 8
  store ptr %0, ptr %4, align 8
  store ptr %1, ptr %5, align 8
  %6 = load ptr, ptr %5, align 8
  %7 = load i32, ptr %6, align 4
  %8 = load ptr, ptr %4, align 8
  %9 = load i32, ptr %8, align 4
  %10 = icmp slt i32 %7, %9
  br i1 %10, label %11, label %13

11:                                               ; preds = %2
  %12 = load ptr, ptr %5, align 8
  store ptr %12, ptr %3, align 8
  br label %15

13:                                               ; preds = %2
  %14 = load ptr, ptr %4, align 8
  store ptr %14, ptr %3, align 8
  br label %15

15:                                               ; preds = %13, %11
  %16 = load ptr, ptr %3, align 8
  ret ptr %16
}

; Function Attrs: mustprogress uwtable
define internal void @_ZL12tick_spacingiPffcS_S_(i32 noundef %0, ptr noundef %1, float noundef %2, i8 noundef signext %3, ptr noundef %4, ptr noundef %5) #0 {
  %7 = alloca i32, align 4
  %8 = alloca ptr, align 8
  %9 = alloca float, align 4
  %10 = alloca i8, align 1
  %11 = alloca ptr, align 8
  %12 = alloca ptr, align 8
  %13 = alloca float, align 4
  %14 = alloca i8, align 1
  %15 = alloca i32, align 4
  %16 = alloca i32, align 4
  %17 = alloca i32, align 4
  %18 = alloca i32, align 4
  %19 = alloca i32, align 4
  %20 = alloca [4 x float], align 16
  %21 = alloca [4 x float], align 16
  %22 = alloca float, align 4
  %23 = alloca float, align 4
  %24 = alloca i32, align 4
  %25 = alloca i32, align 4
  %26 = alloca i32, align 4
  %27 = alloca i32, align 4
  %28 = alloca float, align 4
  %29 = alloca float, align 4
  %30 = alloca i32, align 4
  %31 = alloca i32, align 4
  store i32 %0, ptr %7, align 4
  store ptr %1, ptr %8, align 8
  store float %2, ptr %9, align 4
  store i8 %3, ptr %10, align 1
  store ptr %4, ptr %11, align 8
  store ptr %5, ptr %12, align 8
  store i32 0, ptr %18, align 4
  call void @llvm.memcpy.p0.p0.i64(ptr align 16 %20, ptr align 16 @__const._ZL12tick_spacingiPffcS_S_.major_fact, i64 16, i1 false)
  call void @llvm.memcpy.p0.p0.i64(ptr align 16 %21, ptr align 16 @__const._ZL12tick_spacingiPffcS_S_.minor_fact, i64 16, i1 false)
  %32 = load ptr, ptr %8, align 8
  %33 = getelementptr inbounds float, ptr %32, i64 1
  %34 = load float, ptr %33, align 4
  %35 = load ptr, ptr %8, align 8
  %36 = getelementptr inbounds float, ptr %35, i64 0
  %37 = load float, ptr %36, align 4
  %38 = fneg float %37
  %39 = call float @llvm.fmuladd.f32(float 1.000000e+01, float %34, float %38)
  store float %39, ptr %22, align 4
  %40 = load ptr, ptr %8, align 8
  store i32 10, ptr %24, align 4
  %41 = load i32, ptr %7, align 4
  %42 = sub nsw i32 %41, 1
  store i32 %42, ptr %25, align 4
  %43 = call noundef nonnull align 4 dereferenceable(4) ptr @_ZSt3minIiERKT_S2_S2_(ptr noundef nonnull align 4 dereferenceable(4) %24, ptr noundef nonnull align 4 dereferenceable(4) %25)
  %44 = load i32, ptr %43, align 4
  %45 = sext i32 %44 to i64
  %46 = getelementptr inbounds float, ptr %40, i64 %45
  %47 = load float, ptr %46, align 4
  %48 = load ptr, ptr %8, align 8
  %49 = getelementptr inbounds float, ptr %48, i64 0
  %50 = load float, ptr %49, align 4
  %51 = fsub float %47, %50
  store float %51, ptr %23, align 4
  %52 = call noundef nonnull align 4 dereferenceable(4) ptr @_ZSt3maxIfERKT_S2_S2_(ptr noundef nonnull align 4 dereferenceable(4) %22, ptr noundef nonnull align 4 dereferenceable(4) %23)
  %53 = load float, ptr %52, align 4
  store float %53, ptr %13, align 4
  %54 = load float, ptr %13, align 4
  %55 = call noundef float @_ZSt3logf(float noundef %54)
  %56 = fpext float %55 to double
  %57 = call double @log(double noundef 1.000000e+01) #13
  %58 = fdiv double %56, %57
  %59 = call double @llvm.ceil.f64(double %58)
  %60 = fsub double %59, 1.000000e+00
  %61 = fptosi double %60 to i32
  store i32 %61, ptr %19, align 4
  store i8 1, ptr %14, align 1
  %62 = load i32, ptr %19, align 4
  %63 = add nsw i32 %62, 2
  store i32 %63, ptr %17, align 4
  br label %64

64:                                               ; preds = %133, %6
  %65 = load i32, ptr %17, align 4
  %66 = load i32, ptr %19, align 4
  %67 = sub nsw i32 %66, 3
  %68 = icmp sgt i32 %65, %67
  br i1 %68, label %69, label %72

69:                                               ; preds = %64
  %70 = load i8, ptr %14, align 1
  %71 = trunc i8 %70 to i1
  br label %72

72:                                               ; preds = %69, %64
  %73 = phi i1 [ false, %64 ], [ %71, %69 ]
  br i1 %73, label %74, label %136

74:                                               ; preds = %72
  store i32 0, ptr %18, align 4
  br label %75

75:                                               ; preds = %129, %74
  %76 = load i32, ptr %18, align 4
  %77 = icmp slt i32 %76, 4
  br i1 %77, label %78, label %81

78:                                               ; preds = %75
  %79 = load i8, ptr %14, align 1
  %80 = trunc i8 %79 to i1
  br label %81

81:                                               ; preds = %78, %75
  %82 = phi i1 [ false, %75 ], [ %80, %78 ]
  br i1 %82, label %83, label %132

83:                                               ; preds = %81
  %84 = call noundef float @_Zli5_reale(x86_fp80 noundef 0xK4002A000000000000000)
  %85 = load i32, ptr %17, align 4
  %86 = sitofp i32 %85 to float
  %87 = call noundef float @_ZSt3powff(float noundef %84, float noundef %86)
  %88 = load i32, ptr %18, align 4
  %89 = sext i32 %88 to i64
  %90 = getelementptr inbounds [4 x float], ptr %20, i64 0, i64 %89
  %91 = load float, ptr %90, align 4
  %92 = fmul float %87, %91
  store float %92, ptr %13, align 4
  store i32 0, ptr %15, align 4
  store i32 0, ptr %16, align 4
  br label %93

93:                                               ; preds = %113, %83
  %94 = load i32, ptr %16, align 4
  %95 = load i32, ptr %7, align 4
  %96 = icmp slt i32 %94, %95
  br i1 %96, label %97, label %116

97:                                               ; preds = %93
  %98 = load ptr, ptr %8, align 8
  %99 = load i32, ptr %16, align 4
  %100 = sext i32 %99 to i64
  %101 = getelementptr inbounds float, ptr %98, i64 %100
  %102 = load float, ptr %101, align 4
  %103 = fpext float %102 to double
  %104 = load float, ptr %9, align 4
  %105 = fpext float %104 to double
  %106 = load float, ptr %13, align 4
  %107 = fpext float %106 to double
  %108 = call noundef zeroext i1 @_Z8bRmod_fddddb(double noundef %103, double noundef %105, double noundef %107, i1 noundef zeroext false)
  br i1 %108, label %109, label %112

109:                                              ; preds = %97
  %110 = load i32, ptr %15, align 4
  %111 = add nsw i32 %110, 1
  store i32 %111, ptr %15, align 4
  br label %112

112:                                              ; preds = %109, %97
  br label %113

113:                                              ; preds = %112
  %114 = load i32, ptr %16, align 4
  %115 = add nsw i32 %114, 1
  store i32 %115, ptr %16, align 4
  br label %93, !llvm.loop !37

116:                                              ; preds = %93
  %117 = load i32, ptr %15, align 4
  store i32 10, ptr %26, align 4
  %118 = load i32, ptr %7, align 4
  %119 = sub nsw i32 %118, 1
  store i32 %119, ptr %27, align 4
  %120 = call noundef nonnull align 4 dereferenceable(4) ptr @_ZSt3minIiERKT_S2_S2_(ptr noundef nonnull align 4 dereferenceable(4) %26, ptr noundef nonnull align 4 dereferenceable(4) %27)
  %121 = load i32, ptr %120, align 4
  %122 = icmp sgt i32 %117, %121
  br i1 %122, label %126, label %123

123:                                              ; preds = %116
  %124 = load i32, ptr %15, align 4
  %125 = icmp slt i32 %124, 5
  br label %126

126:                                              ; preds = %123, %116
  %127 = phi i1 [ true, %116 ], [ %125, %123 ]
  %128 = zext i1 %127 to i8
  store i8 %128, ptr %14, align 1
  br label %129

129:                                              ; preds = %126
  %130 = load i32, ptr %18, align 4
  %131 = add nsw i32 %130, 1
  store i32 %131, ptr %18, align 4
  br label %75, !llvm.loop !38

132:                                              ; preds = %81
  br label %133

133:                                              ; preds = %132
  %134 = load i32, ptr %17, align 4
  %135 = add nsw i32 %134, -1
  store i32 %135, ptr %17, align 4
  br label %64, !llvm.loop !39

136:                                              ; preds = %72
  %137 = load i8, ptr %14, align 1
  %138 = trunc i8 %137 to i1
  br i1 %138, label %139, label %168

139:                                              ; preds = %136
  %140 = load ptr, ptr %8, align 8
  %141 = getelementptr inbounds float, ptr %140, i64 1
  %142 = load float, ptr %141, align 4
  %143 = load ptr, ptr %8, align 8
  %144 = getelementptr inbounds float, ptr %143, i64 0
  %145 = load float, ptr %144, align 4
  %146 = fneg float %145
  %147 = call float @llvm.fmuladd.f32(float 1.000000e+01, float %142, float %146)
  store float %147, ptr %28, align 4
  %148 = load ptr, ptr %8, align 8
  store i32 10, ptr %30, align 4
  %149 = load i32, ptr %7, align 4
  %150 = sub nsw i32 %149, 1
  store i32 %150, ptr %31, align 4
  %151 = call noundef nonnull align 4 dereferenceable(4) ptr @_ZSt3minIiERKT_S2_S2_(ptr noundef nonnull align 4 dereferenceable(4) %30, ptr noundef nonnull align 4 dereferenceable(4) %31)
  %152 = load i32, ptr %151, align 4
  %153 = sext i32 %152 to i64
  %154 = getelementptr inbounds float, ptr %148, i64 %153
  %155 = load float, ptr %154, align 4
  %156 = load ptr, ptr %8, align 8
  %157 = getelementptr inbounds float, ptr %156, i64 0
  %158 = load float, ptr %157, align 4
  %159 = fsub float %155, %158
  store float %159, ptr %29, align 4
  %160 = call noundef nonnull align 4 dereferenceable(4) ptr @_ZSt3maxIfERKT_S2_S2_(ptr noundef nonnull align 4 dereferenceable(4) %28, ptr noundef nonnull align 4 dereferenceable(4) %29)
  %161 = load float, ptr %160, align 4
  store float %161, ptr %13, align 4
  %162 = load ptr, ptr @stderr, align 8
  %163 = load i8, ptr %10, align 1
  %164 = sext i8 %163 to i32
  %165 = load float, ptr %13, align 4
  %166 = fpext float %165 to double
  %167 = call i32 (ptr, ptr, ...) @fprintf(ptr noundef %162, ptr noundef @.str.182, i32 noundef %164, double noundef %166) #13
  br label %168

168:                                              ; preds = %139, %136
  %169 = load float, ptr %13, align 4
  %170 = load ptr, ptr %11, align 8
  store float %169, ptr %170, align 4
  %171 = load float, ptr %13, align 4
  %172 = load i32, ptr %18, align 4
  %173 = icmp sgt i32 %172, 0
  br i1 %173, label %174, label %177

174:                                              ; preds = %168
  %175 = load i32, ptr %18, align 4
  %176 = sub nsw i32 %175, 1
  br label %178

177:                                              ; preds = %168
  br label %178

178:                                              ; preds = %177, %174
  %179 = phi i32 [ %176, %174 ], [ 0, %177 ]
  %180 = sext i32 %179 to i64
  %181 = getelementptr inbounds [4 x float], ptr %21, i64 0, i64 %180
  %182 = load float, ptr %181, align 4
  %183 = fdiv float %171, %182
  %184 = load ptr, ptr %12, align 8
  store float %183, ptr %184, align 4
  %185 = load ptr, ptr @stderr, align 8
  %186 = load i8, ptr %10, align 1
  %187 = sext i8 %186 to i32
  %188 = load ptr, ptr %11, align 8
  %189 = load float, ptr %188, align 4
  %190 = fpext float %189 to double
  %191 = load ptr, ptr %12, align 8
  %192 = load float, ptr %191, align 4
  %193 = fpext float %192 to double
  %194 = call i32 (ptr, ptr, ...) @fprintf(ptr noundef %185, ptr noundef @.str.183, i32 noundef %187, double noundef %190, double noundef %193) #13
  ret void
}