; Function Attrs: mustprogress uwtable
define internal fastcc void @_ZL12tick_spacingiPffcS_S_(i32 noundef %0, ptr nocapture noundef readonly %1, float noundef %2, i8 noundef signext %3, ptr nocapture noundef %4, ptr nocapture noundef writeonly %5) unnamed_addr #0 {
  %7 = getelementptr inbounds i8, ptr %1, i64 4
  %8 = load float, ptr %7, align 4
  %9 = load float, ptr %1, align 4
  %10 = fneg float %9
  %11 = tail call float @llvm.fmuladd.f32(float %8, float 1.000000e+01, float %10)
  %12 = tail call i32 @llvm.smin.i32(i32 %0, i32 11)
  %13 = sext i32 %12 to i64
  %14 = getelementptr float, ptr %1, i64 %13
  %15 = getelementptr i8, ptr %14, i64 -4
  %16 = load float, ptr %15, align 4
  %17 = fsub float %16, %9
  %18 = fcmp olt float %11, %17
  %.sroa.speculated72 = select i1 %18, float %17, float %11
  %19 = tail call noundef float @logf(float noundef %.sroa.speculated72) #24
  %20 = fpext float %19 to double
  %21 = fdiv double %20, 0x40026BB1BBB55516
  %22 = tail call double @llvm.ceil.f64(double %21)
  %23 = fadd double %22, -1.000000e+00
  %24 = fptosi double %23 to i32
  %25 = add nsw i32 %24, 2
  %26 = add nsw i32 %24, -3
  %27 = icmp sgt i32 %0, 0
  %28 = fpext float %2 to double
  br i1 %27, label %.preheader.us.preheader, label %.lr.ph79

.preheader.us.preheader:                          ; preds = %6
  %wide.trip.count = zext nneg i32 %0 to i64
  br label %.lr.ph79.us

.preheader.us:                                    ; preds = %29
  br i1 %47, label %.lr.ph79.us, label %.split95.us._crit_edge, !llvm.loop !59

29:                                               ; preds = %._crit_edge.us.us
  %30 = add nsw i32 %.04592.us135, -1
  %31 = icmp sgt i32 %30, %26
  %32 = select i1 %31, i1 %47, i1 false
  br i1 %32, label %.preheader.us, label %.split95.us, !llvm.loop !59

.lr.ph79.us:                                      ; preds = %.preheader.us.preheader, %.preheader.us
  %.04592.us135 = phi i32 [ %25, %.preheader.us.preheader ], [ %30, %.preheader.us ]
  %33 = sitofp i32 %.04592.us135 to float
  br label %.lr.ph.us.us

.lr.ph.us.us:                                     ; preds = %._crit_edge.us.us, %.lr.ph79.us
  %indvars.iv107 = phi i64 [ %indvars.iv.next108, %._crit_edge.us.us ], [ 0, %.lr.ph79.us ]
  %34 = tail call noundef float @powf(float noundef 1.000000e+01, float noundef %33) #24
  %35 = getelementptr inbounds [4 x float], ptr @__const._ZL12tick_spacingiPffcS_S_.major_fact, i64 0, i64 %indvars.iv107
  %36 = load float, ptr %35, align 4
  %37 = fmul float %34, %36
  %38 = fpext float %37 to double
  br label %39

39:                                               ; preds = %39, %.lr.ph.us.us
  %indvars.iv = phi i64 [ %indvars.iv.next, %39 ], [ 0, %.lr.ph.us.us ]
  %.04776.us.us = phi i32 [ %spec.select.us.us, %39 ], [ 0, %.lr.ph.us.us ]
  %40 = getelementptr inbounds float, ptr %1, i64 %indvars.iv
  %41 = load float, ptr %40, align 4
  %42 = fpext float %41 to double
  %43 = tail call noundef zeroext i1 @_Z8bRmod_fddddb(double noundef %42, double noundef %28, double noundef %38, i1 noundef zeroext false)
  %44 = zext i1 %43 to i32
  %spec.select.us.us = add nuw nsw i32 %.04776.us.us, %44
  %indvars.iv.next = add nuw nsw i64 %indvars.iv, 1
  %exitcond106.not = icmp eq i64 %indvars.iv.next, %wide.trip.count
  br i1 %exitcond106.not, label %._crit_edge.us.us, label %39, !llvm.loop !60

._crit_edge.us.us:                                ; preds = %39
  %45 = icmp sge i32 %spec.select.us.us, %12
  %46 = icmp ult i32 %spec.select.us.us, 5
  %47 = or i1 %45, %46
  %indvars.iv.next108 = add nuw nsw i64 %indvars.iv107, 1
  %48 = icmp ult i64 %indvars.iv107, 3
  %49 = select i1 %48, i1 %47, i1 false
  br i1 %49, label %.lr.ph.us.us, label %29, !llvm.loop !61

.lr.ph79:                                         ; preds = %6, %._crit_edge80.split
  %.04592 = phi i32 [ %54, %._crit_edge80.split ], [ %25, %6 ]
  %50 = sitofp i32 %.04592 to float
  br label %51

51:                                               ; preds = %.lr.ph79, %51
  %.14478 = phi i32 [ 0, %.lr.ph79 ], [ %53, %51 ]
  %52 = tail call noundef float @powf(float noundef 1.000000e+01, float noundef %50) #24
  %53 = add nuw nsw i32 %.14478, 1
  %exitcond.not = icmp eq i32 %53, 4
  br i1 %exitcond.not, label %._crit_edge80.split, label %51, !llvm.loop !61

._crit_edge80.split:                              ; preds = %51
  %54 = add nsw i32 %.04592, -1
  %55 = icmp sgt i32 %54, %26
  br i1 %55, label %.lr.ph79, label %.split95.us.thread, !llvm.loop !59

.split95.us:                                      ; preds = %29
  %56 = trunc nuw nsw i64 %indvars.iv.next108 to i32
  br i1 %47, label %.split95.us.thread, label %.split95.us._crit_edge

.split95.us._crit_edge:                           ; preds = %.preheader.us, %.split95.us
  %.us-phi96128 = phi i32 [ %56, %.split95.us ], [ 0, %.preheader.us ]
  %.pre110 = zext nneg i8 %3 to i32
  br label %68

.split95.us.thread:                               ; preds = %._crit_edge80.split, %.split95.us
  %.us-phi96123 = phi i32 [ %56, %.split95.us ], [ 4, %._crit_edge80.split ]
  %57 = load float, ptr %7, align 4
  %58 = load float, ptr %1, align 4
  %59 = fneg float %58
  %60 = tail call float @llvm.fmuladd.f32(float %57, float 1.000000e+01, float %59)
  %61 = load float, ptr %15, align 4
  %62 = fsub float %61, %58
  %63 = fcmp olt float %60, %62
  %.sroa.speculated58 = select i1 %63, float %62, float %60
  %64 = load ptr, ptr @stderr, align 8
  %65 = zext nneg i8 %3 to i32
  %66 = fpext float %.sroa.speculated58 to double
  %67 = tail call i32 (ptr, ptr, ...) @fprintf(ptr noundef %64, ptr noundef nonnull @.str.182, i32 noundef %65, double noundef %66) #25
  br label %68

68:                                               ; preds = %.split95.us._crit_edge, %.split95.us.thread
  %.us-phi96122 = phi i32 [ %.us-phi96128, %.split95.us._crit_edge ], [ %.us-phi96123, %.split95.us.thread ]
  %.pre-phi111 = phi i32 [ %.pre110, %.split95.us._crit_edge ], [ %65, %.split95.us.thread ]
  %.2 = phi float [ %37, %.split95.us._crit_edge ], [ %.sroa.speculated58, %.split95.us.thread ]
  store float %.2, ptr %4, align 4
  %69 = tail call i32 @llvm.usub.sat.i32(i32 %.us-phi96122, i32 1)
  %70 = zext nneg i32 %69 to i64
  %71 = getelementptr inbounds [4 x float], ptr @__const._ZL12tick_spacingiPffcS_S_.minor_fact, i64 0, i64 %70
  %72 = load float, ptr %71, align 4
  %73 = fdiv float %.2, %72
  store float %73, ptr %5, align 4
  %74 = load ptr, ptr @stderr, align 8
  %75 = load float, ptr %4, align 4
  %76 = fpext float %75 to double
  %77 = fpext float %73 to double
  %78 = tail call i32 (ptr, ptr, ...) @fprintf(ptr noundef %74, ptr noundef nonnull @.str.183, i32 noundef %.pre-phi111, double noundef %76, double noundef %77) #25
  ret void
}